target datalayout = "e-m:e-p270:32:32-p271:32:32-p272:64:64-i64:64-i128:128-f80:128-n8:16:32:64-S128"
target triple = "x86_64-pc-linux-gnu"

%"struct.faiss::FlatCodesDistanceComputer" = type { %"struct.faiss::DistanceComputer", ptr, i64 }
%"struct.faiss::DistanceComputer" = type { ptr }
%"struct.faiss::(anonymous namespace)::FlatL2WithNormsDis" = type <{ %"struct.faiss::FlatCodesDistanceComputer", i64, i64, ptr, ptr, i64, ptr, float, [4 x i8] }>

; Function Attrs: mustprogress uwtable
define internal void @_ZN5faiss12_GLOBAL__N_118FlatL2WithNormsDis9set_queryEPKf(ptr noundef nonnull align 8 dereferenceable(76) %0, ptr noundef %1) unnamed_addr #2 align 2 {
  %3 = alloca ptr, align 8
  %4 = alloca ptr, align 8
  store ptr %0, ptr %3, align 8, !tbaa !152
  store ptr %1, ptr %4, align 8, !tbaa !15
  %5 = load ptr, ptr %3, align 8
  %6 = load ptr, ptr %4, align 8, !tbaa !15
  %7 = getelementptr inbounds nuw %"struct.faiss::(anonymous namespace)::FlatL2WithNormsDis", ptr %5, i32 0, i32 3
  store ptr %6, ptr %7, align 8, !tbaa !157
  %8 = getelementptr inbounds nuw %"struct.faiss::(anonymous namespace)::FlatL2WithNormsDis", ptr %5, i32 0, i32 3
  %9 = load ptr, ptr %8, align 8, !tbaa !157
  %10 = getelementptr inbounds nuw %"struct.faiss::(anonymous namespace)::FlatL2WithNormsDis", ptr %5, i32 0, i32 1
  %11 = load i64, ptr %10, align 8, !tbaa !154
  %12 = call noundef float @_ZN5faiss15fvec_norm_L2sqrEPKfm(ptr noundef %9, i64 noundef %11)
  %13 = getelementptr inbounds nuw %"struct.faiss::(anonymous namespace)::FlatL2WithNormsDis", ptr %5, i32 0, i32 7
  store float %12, ptr %13, align 8, !tbaa !161
  ret void
}