; Function Attrs: mustprogress uwtable
define internal void @_ZN5faiss12_GLOBAL__N_118FlatL2WithNormsDis9set_queryEPKf(ptr noundef nonnull align 8 captures(none) dereferenceable(76) initializes((40, 48), (72, 76)) %0, ptr noundef %1) unnamed_addr #2 align 2 {
  %3 = getelementptr inbounds nuw i8, ptr %0, i64 40
  store ptr %1, ptr %3, align 8, !tbaa !72
  %4 = getelementptr inbounds nuw i8, ptr %0, i64 24
  %5 = load i64, ptr %4, align 8, !tbaa !69
  %6 = tail call noundef float @_ZN5faiss15fvec_norm_L2sqrEPKfm(ptr noundef %1, i64 noundef %5)
  %7 = getelementptr inbounds nuw i8, ptr %0, i64 72
  store float %6, ptr %7, align 8, !tbaa !76
  ret void
}